target datalayout = "e-m:e-p270:32:32-p271:32:32-p272:64:64-i64:64-i128:128-f80:128-n8:16:32:64-S128"
target triple = "x86_64-pc-linux-gnu"

; Function Attrs: inlinehint nounwind uwtable
define internal i32 @ComparePixelsLossless(ptr noundef %0, i32 noundef %1, ptr noundef %2, i32 noundef %3, i32 noundef %4, i32 noundef %5) #4 {
  %7 = alloca i32, align 4
  %8 = alloca ptr, align 8
  %9 = alloca i32, align 4
  %10 = alloca ptr, align 8
  %11 = alloca i32, align 4
  %12 = alloca i32, align 4
  %13 = alloca i32, align 4
  store ptr %0, ptr %8, align 8, !tbaa !68
  store i32 %1, ptr %9, align 4, !tbaa !8
  store ptr %2, ptr %10, align 8, !tbaa !68
  store i32 %3, ptr %11, align 4, !tbaa !8
  store i32 %4, ptr %12, align 4, !tbaa !8
  store i32 %5, ptr %13, align 4, !tbaa !8
  br label %14

14:                                               ; preds = %25, %6
  %15 = load i32, ptr %12, align 4, !tbaa !8
  %16 = add nsw i32 %15, -1
  store i32 %16, ptr %12, align 4, !tbaa !8
  %17 = icmp sgt i32 %15, 0
  br i1 %17, label %18, label %34

18:                                               ; preds = %14
  %19 = load ptr, ptr %8, align 8, !tbaa !68
  %20 = load i32, ptr %19, align 4, !tbaa !8
  %21 = load ptr, ptr %10, align 8, !tbaa !68
  %22 = load i32, ptr %21, align 4, !tbaa !8
  %23 = icmp ne i32 %20, %22
  br i1 %23, label %24, label %25

24:                                               ; preds = %18
  store i32 0, ptr %7, align 4
  br label %35

25:                                               ; preds = %18
  %26 = load i32, ptr %9, align 4, !tbaa !8
  %27 = load ptr, ptr %8, align 8, !tbaa !68
  %28 = sext i32 %26 to i64
  %29 = getelementptr inbounds i32, ptr %27, i64 %28
  store ptr %29, ptr %8, align 8, !tbaa !68
  %30 = load i32, ptr %11, align 4, !tbaa !8
  %31 = load ptr, ptr %10, align 8, !tbaa !68
  %32 = sext i32 %30 to i64
  %33 = getelementptr inbounds i32, ptr %31, i64 %32
  store ptr %33, ptr %10, align 8, !tbaa !68
  br label %14, !llvm.loop !125

34:                                               ; preds = %14
  store i32 1, ptr %7, align 4
  br label %35

35:                                               ; preds = %34, %24
  %36 = load i32, ptr %7, align 4
  ret i32 %36
}