; Function Attrs: inlinehint nofree norecurse nosync nounwind memory(argmem: read) uwtable
define internal range(i32 0, 2) i32 @ComparePixelsLossless(ptr noundef readonly captures(none) %0, i32 noundef %1, ptr noundef readonly captures(none) %2, i32 noundef %3, i32 noundef %4, i32 %5) unnamed_addr #9 {
  %7 = icmp sgt i32 %4, 0
  br i1 %7, label %.lr.ph, label %._crit_edge

.lr.ph:                                           ; preds = %6
  %8 = sext i32 %1 to i64
  %9 = sext i32 %3 to i64
  br label %10

10:                                               ; preds = %.lr.ph, %13
  %.in = phi i32 [ %4, %.lr.ph ], [ %14, %13 ]
  %.0811 = phi ptr [ %0, %.lr.ph ], [ %15, %13 ]
  %.0910 = phi ptr [ %2, %.lr.ph ], [ %16, %13 ]
  %11 = load i32, ptr %.0811, align 4, !tbaa !16
  %12 = load i32, ptr %.0910, align 4, !tbaa !16
  %.not = icmp eq i32 %11, %12
  br i1 %.not, label %13, label %._crit_edge

13:                                               ; preds = %10
  %14 = add nsw i32 %.in, -1
  %15 = getelementptr inbounds i32, ptr %.0811, i64 %8
  %16 = getelementptr inbounds i32, ptr %.0910, i64 %9
  %17 = icmp sgt i32 %.in, 1
  br i1 %17, label %10, label %._crit_edge, !llvm.loop !123

._crit_edge:                                      ; preds = %10, %13, %6
  %.0 = phi i32 [ 1, %6 ], [ 1, %13 ], [ 0, %10 ]
  ret i32 %.0
}